target datalayout = "e-m:e-p270:32:32-p271:32:32-p272:64:64-i64:64-i128:128-f80:128-n8:16:32:64-S128"
target triple = "x86_64-pc-linux-gnu"

%struct.IDAMemRec = type { ptr, double, ptr, ptr, i32, double, double, ptr, i32, i32, ptr, ptr, i32, i32, i32, ptr, ptr, i32, i32, double, double, ptr, i32, i32, i32, i32, ptr, ptr, i32, ptr, ptr, ptr, i32, double, i32, i32, double, ptr, ptr, ptr, i32, ptr, ptr, i32, i32, i32, double, ptr, ptr, ptr, [6 x ptr], [6 x double], [6 x double], [6 x double], [6 x double], [6 x double], ptr, ptr, ptr, ptr, ptr, ptr, ptr, ptr, ptr, ptr, ptr, ptr, ptr, ptr, ptr, ptr, ptr, [6 x ptr], ptr, ptr, ptr, ptr, [6 x ptr], ptr, ptr, ptr, ptr, ptr, ptr, ptr, ptr, ptr, ptr, ptr, ptr, ptr, ptr, ptr, ptr, [6 x ptr], ptr, ptr, ptr, ptr, ptr, double, ptr, ptr, i32, i32, i32, i32, i32, i32, i32, i32, double, double, double, i32, double, i32, i32, i32, i32, i32, double, double, double, double, double, double, double, double, double, double, double, double, double, double, double, double, double, i32, i32, i32, i32, i64, double, double, double, double, double, double, double, double, double, i64, i64, i64, i64, i64, i64, i64, i64, i64, i64, i64, i64, i64, i64, i64, i64, i64, i64, i64, i64, i64, i64, i64, i64, i64, i64, double, i32, i32, i32, i32, i32, i32, i32, i32, i32, i32, i32, i32, i32, ptr, i32, ptr, i32, ptr, i32, ptr, ptr, ptr, ptr, ptr, ptr, i32, i32, ptr, ptr, ptr, ptr, ptr, ptr, ptr, double, i32, i32, ptr, i32, ptr, ptr, double, double, double, ptr, ptr, ptr, double, double, i32, i32, i64, ptr, i32, ptr, [5 x double], ptr, ptr, i32, ptr, i32 }

@.str = private unnamed_addr constant [115 x i8] c"generated/home/dtcxzyw/WorkSpace/Projects/compilers/llvm-opt-benchmark/bench/sundials/sundials/src/idas/idas_nls.c\00", align 1
@.str.1 = private unnamed_addr constant [24 x i8] c"ida_mem = NULL illegal.\00", align 1
@__func__.idaNlsResidual = private unnamed_addr constant [15 x i8] c"idaNlsResidual\00", align 1

; Function Attrs: nounwind uwtable
define internal i32 @idaNlsResidual(ptr noundef %0, ptr noundef %1, ptr noundef %2) #0 {
  %4 = alloca i32, align 4
  %5 = alloca ptr, align 8
  %6 = alloca ptr, align 8
  %7 = alloca ptr, align 8
  %8 = alloca ptr, align 8
  %9 = alloca i32, align 4
  %10 = alloca i32, align 4
  store ptr %0, ptr %5, align 8, !tbaa !33
  store ptr %1, ptr %6, align 8, !tbaa !33
  store ptr %2, ptr %7, align 8, !tbaa !3
  call void @llvm.lifetime.start.p0(i64 8, ptr %8) #3
  call void @llvm.lifetime.start.p0(i64 4, ptr %9) #3
  %11 = load ptr, ptr %7, align 8, !tbaa !3
  %12 = icmp eq ptr %11, null
  br i1 %12, label %13, label %14

13:                                               ; preds = %3
  call void (ptr, i32, i32, ptr, ptr, ptr, ...) @IDAProcessError(ptr noundef null, i32 noundef -20, i32 noundef 299, ptr noundef @__func__.idaNlsResidual, ptr noundef @.str, ptr noundef @.str.1)
  store i32 -20, ptr %4, align 4
  store i32 1, ptr %10, align 4
  br label %66

14:                                               ; preds = %3
  %15 = load ptr, ptr %7, align 8, !tbaa !3
  store ptr %15, ptr %8, align 8, !tbaa !9
  %16 = load ptr, ptr %8, align 8, !tbaa !9
  %17 = getelementptr inbounds nuw %struct.IDAMemRec, ptr %16, i32 0, i32 59
  %18 = load ptr, ptr %17, align 8, !tbaa !34
  %19 = load ptr, ptr %5, align 8, !tbaa !33
  %20 = load ptr, ptr %8, align 8, !tbaa !9
  %21 = getelementptr inbounds nuw %struct.IDAMemRec, ptr %20, i32 0, i32 57
  %22 = load ptr, ptr %21, align 8, !tbaa !35
  call void @N_VLinearSum(double noundef 1.000000e+00, ptr noundef %18, double noundef 1.000000e+00, ptr noundef %19, ptr noundef %22)
  %23 = load ptr, ptr %8, align 8, !tbaa !9
  %24 = getelementptr inbounds nuw %struct.IDAMemRec, ptr %23, i32 0, i32 60
  %25 = load ptr, ptr %24, align 8, !tbaa !36
  %26 = load ptr, ptr %8, align 8, !tbaa !9
  %27 = getelementptr inbounds nuw %struct.IDAMemRec, ptr %26, i32 0, i32 129
  %28 = load double, ptr %27, align 8, !tbaa !37
  %29 = load ptr, ptr %5, align 8, !tbaa !33
  %30 = load ptr, ptr %8, align 8, !tbaa !9
  %31 = getelementptr inbounds nuw %struct.IDAMemRec, ptr %30, i32 0, i32 58
  %32 = load ptr, ptr %31, align 8, !tbaa !38
  call void @N_VLinearSum(double noundef 1.000000e+00, ptr noundef %25, double noundef %28, ptr noundef %29, ptr noundef %32)
  %33 = load ptr, ptr %8, align 8, !tbaa !9
  %34 = getelementptr inbounds nuw %struct.IDAMemRec, ptr %33, i32 0, i32 207
  %35 = load ptr, ptr %34, align 8, !tbaa !32
  %36 = load ptr, ptr %8, align 8, !tbaa !9
  %37 = getelementptr inbounds nuw %struct.IDAMemRec, ptr %36, i32 0, i32 127
  %38 = load double, ptr %37, align 8, !tbaa !39
  %39 = load ptr, ptr %8, align 8, !tbaa !9
  %40 = getelementptr inbounds nuw %struct.IDAMemRec, ptr %39, i32 0, i32 57
  %41 = load ptr, ptr %40, align 8, !tbaa !35
  %42 = load ptr, ptr %8, align 8, !tbaa !9
  %43 = getelementptr inbounds nuw %struct.IDAMemRec, ptr %42, i32 0, i32 58
  %44 = load ptr, ptr %43, align 8, !tbaa !38
  %45 = load ptr, ptr %6, align 8, !tbaa !33
  %46 = load ptr, ptr %8, align 8, !tbaa !9
  %47 = getelementptr inbounds nuw %struct.IDAMemRec, ptr %46, i32 0, i32 3
  %48 = load ptr, ptr %47, align 8, !tbaa !40
  %49 = call i32 %35(double noundef %38, ptr noundef %41, ptr noundef %44, ptr noundef %45, ptr noundef %48)
  store i32 %49, ptr %9, align 4, !tbaa !30
  %50 = load ptr, ptr %8, align 8, !tbaa !9
  %51 = getelementptr inbounds nuw %struct.IDAMemRec, ptr %50, i32 0, i32 154
  %52 = load i64, ptr %51, align 8, !tbaa !41
  %53 = add nsw i64 %52, 1
  store i64 %53, ptr %51, align 8, !tbaa !41
  %54 = load ptr, ptr %6, align 8, !tbaa !33
  %55 = load ptr, ptr %8, align 8, !tbaa !9
  %56 = getelementptr inbounds nuw %struct.IDAMemRec, ptr %55, i32 0, i32 64
  %57 = load ptr, ptr %56, align 8, !tbaa !42
  call void @N_VScale(double noundef 1.000000e+00, ptr noundef %54, ptr noundef %57)
  %58 = load i32, ptr %9, align 4, !tbaa !30
  %59 = icmp slt i32 %58, 0
  br i1 %59, label %60, label %61

60:                                               ; preds = %14
  store i32 -8, ptr %4, align 4
  store i32 1, ptr %10, align 4
  br label %66

61:                                               ; preds = %14
  %62 = load i32, ptr %9, align 4, !tbaa !30
  %63 = icmp sgt i32 %62, 0
  br i1 %63, label %64, label %65

64:                                               ; preds = %61
  store i32 1, ptr %4, align 4
  store i32 1, ptr %10, align 4
  br label %66

65:                                               ; preds = %61
  store i32 0, ptr %4, align 4
  store i32 1, ptr %10, align 4
  br label %66

66:                                               ; preds = %65, %64, %60, %13
  call void @llvm.lifetime.end.p0(i64 4, ptr %9) #3
  call void @llvm.lifetime.end.p0(i64 8, ptr %8) #3
  %67 = load i32, ptr %4, align 4
  ret i32 %67
}