; Function Attrs: nounwind uwtable
define internal range(i32 -20, 2) i32 @idaNlsResidual(ptr noundef %0, ptr noundef %1, ptr noundef captures(address_is_null) %2) #0 {
  %4 = icmp eq ptr %2, null
  br i1 %4, label %5, label %6

5:                                                ; preds = %3
  tail call void (ptr, i32, i32, ptr, ptr, ptr, ...) @IDAProcessError(ptr noundef null, i32 noundef -20, i32 noundef 299, ptr noundef nonnull @__func__.idaNlsResidual, ptr noundef nonnull @.str, ptr noundef nonnull @.str.1) #3
  br label %33

6:                                                ; preds = %3
  %7 = getelementptr inbounds nuw i8, ptr %2, i64 656
  %8 = load ptr, ptr %7, align 8, !tbaa !28
  %9 = getelementptr inbounds nuw i8, ptr %2, i64 640
  %10 = load ptr, ptr %9, align 8, !tbaa !29
  tail call void @N_VLinearSum(double noundef 1.000000e+00, ptr noundef %8, double noundef 1.000000e+00, ptr noundef %0, ptr noundef %10) #3
  %11 = getelementptr inbounds nuw i8, ptr %2, i64 664
  %12 = load ptr, ptr %11, align 8, !tbaa !30
  %13 = getelementptr inbounds nuw i8, ptr %2, i64 1288
  %14 = load double, ptr %13, align 8, !tbaa !31
  %15 = getelementptr inbounds nuw i8, ptr %2, i64 648
  %16 = load ptr, ptr %15, align 8, !tbaa !32
  tail call void @N_VLinearSum(double noundef 1.000000e+00, ptr noundef %12, double noundef %14, ptr noundef %0, ptr noundef %16) #3
  %17 = getelementptr inbounds nuw i8, ptr %2, i64 1840
  %18 = load ptr, ptr %17, align 8, !tbaa !27
  %19 = getelementptr inbounds nuw i8, ptr %2, i64 1272
  %20 = load double, ptr %19, align 8, !tbaa !33
  %21 = load ptr, ptr %9, align 8, !tbaa !29
  %22 = load ptr, ptr %15, align 8, !tbaa !32
  %23 = getelementptr inbounds nuw i8, ptr %2, i64 24
  %24 = load ptr, ptr %23, align 8, !tbaa !34
  %25 = tail call i32 %18(double noundef %20, ptr noundef %21, ptr noundef %22, ptr noundef %1, ptr noundef %24) #3
  %26 = getelementptr inbounds nuw i8, ptr %2, i64 1472
  %27 = load i64, ptr %26, align 8, !tbaa !35
  %28 = add nsw i64 %27, 1
  store i64 %28, ptr %26, align 8, !tbaa !35
  %29 = getelementptr inbounds nuw i8, ptr %2, i64 696
  %30 = load ptr, ptr %29, align 8, !tbaa !36
  tail call void @N_VScale(double noundef 1.000000e+00, ptr noundef %1, ptr noundef %30) #3
  %31 = icmp slt i32 %25, 0
  br i1 %31, label %33, label %32

32:                                               ; preds = %6
  %.not = icmp ne i32 %25, 0
  %. = zext i1 %.not to i32
  br label %33

33:                                               ; preds = %32, %6, %5
  %.0 = phi i32 [ -20, %5 ], [ -8, %6 ], [ %., %32 ]
  ret i32 %.0
}